; Function Attrs: nounwind uwtable
define internal fastcc zeroext i1 @OpclassIsVisibleExt(i32 noundef %0, ptr noundef writeonly captures(address_is_null) %1) unnamed_addr #0 {
  %3 = zext i32 %0 to i64
  %4 = tail call ptr @SearchSysCache1(i32 noundef 14, i64 noundef %3) #19
  %.not = icmp eq ptr %4, null
  br i1 %.not, label %5, label %10

5:                                                ; preds = %2
  %.not19 = icmp eq ptr %1, null
  br i1 %.not19, label %7, label %6

6:                                                ; preds = %5
  store i8 1, ptr %1, align 1
  br label %48

7:                                                ; preds = %5
  %8 = tail call zeroext i1 @errstart_cold(i32 noundef 21, ptr noundef null) #21
  tail call void @llvm.assume(i1 %8)
  %9 = tail call i32 (ptr, ...) @errmsg_internal(ptr noundef nonnull @.str.34, i32 noundef %0) #19
  tail call void @errfinish(ptr noundef nonnull @.str.1, i32 noundef 2181, ptr noundef nonnull @__func__.OpclassIsVisibleExt) #19
  unreachable

10:                                               ; preds = %2
  %11 = getelementptr i8, ptr %4, i64 16
  %.val = load ptr, ptr %11, align 8
  %12 = getelementptr inbounds nuw i8, ptr %.val, i64 22
  %13 = load i8, ptr %12, align 2
  %14 = zext i8 %13 to i64
  %15 = getelementptr inbounds nuw i8, ptr %.val, i64 %14
  tail call fastcc void @recomputeNamespacePath()
  %16 = getelementptr inbounds nuw i8, ptr %15, i64 72
  %17 = load i32, ptr %16, align 4
  %.not20 = icmp eq i32 %17, 11
  br i1 %.not20, label %21, label %18

18:                                               ; preds = %10
  %19 = load ptr, ptr @activeSearchPath, align 8
  %20 = tail call zeroext i1 @list_member_oid(ptr noundef %19, i32 noundef %17) #19
  br i1 %20, label %21, label %47

21:                                               ; preds = %18, %10
  %22 = getelementptr inbounds nuw i8, ptr %15, i64 8
  %23 = getelementptr inbounds nuw i8, ptr %15, i64 4
  %24 = load i32, ptr %23, align 4
  tail call fastcc void @recomputeNamespacePath()
  %25 = load ptr, ptr @activeSearchPath, align 8
  %26 = getelementptr inbounds nuw i8, ptr %25, i64 4
  %27 = zext i32 %24 to i64
  %28 = ptrtoint ptr %22 to i64
  %.not.i = icmp eq ptr %25, null
  br i1 %.not.i, label %OpclassnameGetOpcid.exit, label %.lr.ph.i

.lr.ph.i:                                         ; preds = %21
  %29 = getelementptr inbounds nuw i8, ptr %25, i64 16
  %30 = load i32, ptr %26, align 4
  %31 = icmp sgt i32 %30, 0
  br i1 %31, label %.lr.ph40.preheader.i, label %OpclassnameGetOpcid.exit

.lr.ph40.preheader.i:                             ; preds = %.lr.ph.i
  %.pre42.i = load i32, ptr @myTempNamespace, align 4
  br label %.lr.ph40.i

.lr.ph40.i:                                       ; preds = %select.unfold.i, %.lr.ph40.preheader.i
  %32 = phi i32 [ %30, %.lr.ph40.preheader.i ], [ %41, %select.unfold.i ]
  %33 = phi i32 [ %.pre42.i, %.lr.ph40.preheader.i ], [ %42, %select.unfold.i ]
  %indvars.iv.i = phi i64 [ 0, %.lr.ph40.preheader.i ], [ %indvars.iv.next.i, %select.unfold.i ]
  %34 = load ptr, ptr %29, align 8
  %35 = getelementptr inbounds nuw %union.ListCell, ptr %34, i64 %indvars.iv.i
  %36 = load i32, ptr %35, align 8
  %37 = icmp eq i32 %36, %33
  br i1 %37, label %select.unfold.i, label %38

38:                                               ; preds = %.lr.ph40.i
  %39 = zext i32 %36 to i64
  %40 = tail call i32 @GetSysCacheOid(i32 noundef 13, i16 noundef signext 1, i64 noundef %27, i64 noundef %28, i64 noundef %39, i64 noundef 0) #19
  %.not20.i = icmp eq i32 %40, 0
  br i1 %.not20.i, label %.select.unfold_crit_edge.i, label %OpclassnameGetOpcid.exit

.select.unfold_crit_edge.i:                       ; preds = %38
  %.pre.i = load i32, ptr @myTempNamespace, align 4
  %.pre43.i = load i32, ptr %26, align 4
  br label %select.unfold.i

select.unfold.i:                                  ; preds = %.select.unfold_crit_edge.i, %.lr.ph40.i
  %41 = phi i32 [ %.pre43.i, %.select.unfold_crit_edge.i ], [ %32, %.lr.ph40.i ]
  %42 = phi i32 [ %.pre.i, %.select.unfold_crit_edge.i ], [ %33, %.lr.ph40.i ]
  %indvars.iv.next.i = add nuw nsw i64 %indvars.iv.i, 1
  %43 = sext i32 %41 to i64
  %44 = icmp slt i64 %indvars.iv.next.i, %43
  br i1 %44, label %.lr.ph40.i, label %OpclassnameGetOpcid.exit

OpclassnameGetOpcid.exit:                         ; preds = %38, %select.unfold.i, %21, %.lr.ph.i
  %45 = phi i32 [ 0, %21 ], [ 0, %.lr.ph.i ], [ %40, %38 ], [ 0, %select.unfold.i ]
  %46 = icmp eq i32 %45, %0
  br label %47

47:                                               ; preds = %18, %OpclassnameGetOpcid.exit
  %.015 = phi i1 [ %46, %OpclassnameGetOpcid.exit ], [ false, %18 ]
  tail call void @ReleaseSysCache(ptr noundef nonnull %4) #19
  br label %48

48:                                               ; preds = %47, %6
  %.0 = phi i1 [ %.015, %47 ], [ false, %6 ]
  ret i1 %.0
}